; Function Attrs: mustprogress nounwind uwtable
define dso_local noundef zeroext i1 @_ZNK4llvm8LoopPass8skipLoopEPKNS_4LoopE(ptr noundef nonnull align 8 dereferenceable(28) %0, ptr noundef nonnull %1) local_unnamed_addr #0 align 2 {
  %3 = alloca %"class.std::allocator.74", align 1
  %4 = alloca %"class.std::__cxx11::basic_string", align 8
  %5 = tail call noundef ptr @_ZNK4llvm8LoopBaseINS_10BasicBlockENS_4LoopEE9getHeaderEv(ptr noundef nonnull align 8 dereferenceable(152) %1) #18
  %6 = getelementptr inbounds nuw i8, ptr %5, i64 72
  %7 = load ptr, ptr %6, align 8
  %.not = icmp eq ptr %7, null
  br i1 %.not, label %32, label %8

8:                                                ; preds = %2
  %9 = tail call noundef nonnull align 8 dereferenceable(8) ptr @_ZNK4llvm8Function10getContextEv(ptr noundef nonnull align 8 dereferenceable(136) %7) #18
  %10 = tail call noundef nonnull align 8 dereferenceable(8) ptr @_ZNK4llvm11LLVMContext14getOptPassGateEv(ptr noundef nonnull align 8 dereferenceable(8) %9) #18
  %11 = load ptr, ptr %10, align 8
  %12 = getelementptr inbounds i8, ptr %11, i64 24
  %13 = load ptr, ptr %12, align 8
  %14 = tail call noundef zeroext i1 %13(ptr noundef nonnull align 8 dereferenceable(8) %10) #18
  br i1 %14, label %15, label %.thread12

15:                                               ; preds = %8
  %16 = load ptr, ptr %0, align 8
  %17 = getelementptr inbounds i8, ptr %16, i64 16
  %18 = load ptr, ptr %17, align 8
  %19 = tail call { ptr, i64 } %18(ptr noundef nonnull align 8 dereferenceable(28) %0) #18
  %20 = extractvalue { ptr, i64 } %19, 0
  %21 = extractvalue { ptr, i64 } %19, 1
  call void @llvm.lifetime.start.p0(i64 1, ptr nonnull %3)
  call void @_ZNSaIcEC1Ev(ptr noundef nonnull align 1 dereferenceable(1) %3) #18, !noalias !105
  %22 = call noundef ptr @_ZNSt7__cxx1112basic_stringIcSt11char_traitsIcESaIcEE13_M_local_dataEv(ptr noundef nonnull align 8 dereferenceable(32) %4) #18
  call void @_ZNSt7__cxx1112basic_stringIcSt11char_traitsIcESaIcEE12_Alloc_hiderC1EPcRKS3_(ptr noundef nonnull align 8 dereferenceable(8) %4, ptr noundef %22, ptr noundef nonnull align 1 dereferenceable(1) %3) #18
  %23 = call noundef ptr @_ZNSt7__cxx1112basic_stringIcSt11char_traitsIcESaIcEE13_M_local_dataEv(ptr noundef nonnull align 8 dereferenceable(32) %4) #18
  %24 = call noundef ptr @_ZNKSt7__cxx1112basic_stringIcSt11char_traitsIcESaIcEE7_M_dataEv(ptr noundef nonnull align 8 dereferenceable(32) %4) #18
  call void @_ZNSt7__cxx1112basic_stringIcSt11char_traitsIcESaIcEE13_S_copy_charsEPcPKcS7_(ptr noundef %24, ptr noundef nonnull @.str.8, ptr noundef nonnull getelementptr inbounds (i8, ptr @.str.8, i64 4)) #18
  call void @_ZNSt7__cxx1112basic_stringIcSt11char_traitsIcESaIcEE13_M_set_lengthEm(ptr noundef nonnull align 8 dereferenceable(32) %4, i64 noundef 4) #18
  call void @_ZNSaIcED1Ev(ptr noundef nonnull align 1 dereferenceable(1) %3) #18
  call void @llvm.lifetime.end.p0(i64 1, ptr nonnull %3)
  %25 = call noundef ptr @_ZNKSt7__cxx1112basic_stringIcSt11char_traitsIcESaIcEE4dataEv(ptr noundef nonnull align 8 dereferenceable(32) %4) #18
  %26 = call noundef i64 @_ZNKSt7__cxx1112basic_stringIcSt11char_traitsIcESaIcEE6lengthEv(ptr noundef nonnull align 8 dereferenceable(32) %4) #18
  %27 = load ptr, ptr %10, align 8
  %28 = getelementptr inbounds i8, ptr %27, i64 16
  %29 = load ptr, ptr %28, align 8
  %30 = call noundef zeroext i1 %29(ptr noundef nonnull align 8 dereferenceable(8) %10, ptr %20, i64 %21, ptr %25, i64 %26) #18
  call void @_ZNSt7__cxx1112basic_stringIcSt11char_traitsIcESaIcEED1Ev(ptr noundef nonnull align 8 dereferenceable(32) %4) #18
  br i1 %30, label %.thread12, label %32

.thread12:                                        ; preds = %8, %15
  %31 = call noundef zeroext i1 @_ZNK4llvm8Function14hasFnAttributeENS_9Attribute8AttrKindE(ptr noundef nonnull align 8 dereferenceable(136) %7, i32 noundef 46) #18
  br label %32

32:                                               ; preds = %.thread12, %15, %2
  %.010 = phi i1 [ false, %2 ], [ true, %15 ], [ %31, %.thread12 ]
  ret i1 %.010
}